; Function Attrs: mustprogress ssp uwtable
define noundef i64 @_ZNK6open3d4core10SizeVector9GetLengthEv(ptr noundef nonnull readonly align 8 captures(none) dereferenceable(48) %0) local_unnamed_addr #0 align 2 {
  %2 = getelementptr inbounds nuw i8, ptr %0, i64 8
  %3 = load i32, ptr %2, align 8, !tbaa !15
  %4 = icmp eq i32 %3, 0
  br i1 %4, label %5, label %6

5:                                                ; preds = %1
  tail call void @_ZN6open3d7utility6Logger9LogError_IJEEEvPKciS4_S4_DpOT_(ptr noundef nonnull @.str, i32 noundef 126, ptr noundef nonnull @__PRETTY_FUNCTION__._ZNK6open3d4core10SizeVector9GetLengthEv, ptr noundef nonnull @.str.56) #31
  unreachable

6:                                                ; preds = %1
  %7 = load ptr, ptr %0, align 8, !tbaa !11
  %8 = load i64, ptr %7, align 8, !tbaa !9
  ret i64 %8
}